Certificate:
    Data:
        Version: 3 (0x2)
        Serial Number: 1048577 (0x100001)
    Signature Algorithm: sha256WithRSAEncryption
        Issuer: CN=Duplicate Hash CA, C=US, ST=Massachusetts, O=Xamarin, OU=Engineering/emailAddress=martin.baulig@xamarin.com
        Validity
            Not Before: Nov 16 16:28:01 2016 GMT
            Not After : Nov 14 16:28:01 2026 GMT
        Subject: C=US, ST=Massachusetts, O=Xamarin, OU=Engineering, CN=public.Hamiller-Tube.local
        Subject Public Key Info:
            Public Key Algorithm: rsaEncryption
                Public-Key: (4096 bit)
                Modulus:
                    00:b4:7f:06:f1:b7:14:a1:a0:03:df:54:2b:12:a0:
                    69:c0:79:64:57:2b:e7:d9:65:67:22:47:3b:61:2d:
                    44:3c:a9:aa:c9:36:2f:bd:86:8b:97:11:27:4d:f3:
                    de:d5:51:a8:68:ec:3b:19:02:cd:84:0d:01:1f:4f:
                    50:e1:66:a9:90:54:97:ff:04:43:f4:fe:43:fb:58:
                    fc:7e:f3:73:50:e2:b2:10:90:3e:06:b3:c9:7c:d1:
                    42:70:64:59:9c:28:2d:da:ab:c7:99:7a:ec:b1:6e:
                    3c:da:fa:04:57:9d:5b:7f:1b:5c:c9:91:66:27:97:
                    dd:bf:9a:b9:56:0b:3f:69:0b:16:25:ca:88:06:e3:
                    ec:7c:d2:89:ea:f5:e6:60:10:13:4b:41:a0:2e:bb:
                    3b:71:ce:59:2c:54:c4:05:01:5e:94:78:56:50:a2:
                    0e:05:6f:e4:f1:a0:a3:4c:9d:61:c0:5d:2f:9f:6a:
                    c0:74:f1:7a:38:cb:9f:86:76:d4:1c:0b:b4:4e:7b:
                    1f:1c:80:f7:8b:04:d4:a4:5d:cc:00:17:86:a7:1d:
                    dd:31:be:78:0d:b0:4f:d0:9d:a2:bf:24:92:f6:ea:
                    d6:88:6f:08:27:0f:4d:24:9b:df:f7:16:1f:71:72:
                    c9:a4:17:f8:a7:39:5f:ee:9f:ec:d9:82:62:dc:e6:
                    35:e9:46:83:ef:9c:44:8a:d0:5e:c6:e4:21:29:55:
                    75:d4:95:63:e9:5a:99:74:d4:6d:79:86:f7:24:1d:
                    a4:43:df:cd:33:8f:ad:d2:e8:73:1f:d6:44:26:3a:
                    28:1a:1f:e4:d8:12:92:3a:be:4e:2f:99:19:1a:1e:
                    44:a6:a3:0c:56:cf:9d:06:92:9c:a9:1c:8e:19:dc:
                    6e:68:39:d6:b7:6f:ab:7f:11:78:f3:a2:2e:77:5e:
                    69:f3:75:46:a1:87:8b:2d:0c:75:b7:60:50:03:e1:
                    fb:42:89:4b:10:a4:73:a5:3b:eb:37:e1:dc:f3:e7:
                    24:c0:26:d0:9a:7d:bb:7e:22:86:53:01:3b:6a:65:
                    8e:76:af:16:f7:20:9d:6f:4a:40:a9:4f:a1:c5:96:
                    e9:6f:3f:37:07:d0:d2:01:bb:e4:9e:81:c4:cb:31:
                    0f:af:0c:65:c7:df:25:65:23:93:b6:d8:82:34:4d:
                    bf:a1:b2:d0:c1:a7:0b:8f:42:3e:88:14:8d:d7:22:
                    1d:3a:a1:1e:8a:ea:79:86:19:37:09:c6:6d:91:ab:
                    a7:01:05:45:7d:df:22:d7:4e:da:5f:43:15:57:e1:
                    84:5f:a7:b0:3a:82:db:a6:86:5a:57:39:2e:88:49:
                    5b:73:6f:bc:39:3d:59:08:11:a2:4d:38:08:a7:70:
                    59:7a:ad
                Exponent: 65537 (0x10001)
        X509v3 extensions:
            X509v3 Key Usage: critical
                Digital Signature, Key Encipherment
            X509v3 Extended Key Usage: critical
                TLS Web Server Authentication
            X509v3 Subject Key Identifier: 
                80:C1:84:8B:C1:99:CC:4F:9C:8A:B6:19:A4:BB:70:7A:36:B1:F1:31
            X509v3 Authority Key Identifier: 
                keyid:7B:E6:3E:26:54:9A:54:67:38:CD:91:80:8F:1D:0E:1A:1E:03:CA:14
                DirName:/CN=Duplicate Hash CA/C=US/ST=Massachusetts/O=Xamarin/OU=Engineering/emailAddress=martin.baulig@xamarin.com
                serial:E6:0B:C8:D8:61:0A:59:45

    Signature Algorithm: sha256WithRSAEncryption
         9c:3d:b1:ab:fe:d0:c2:67:69:96:9d:7d:fd:d8:dc:e6:90:46:
         71:fe:6f:13:13:4a:3c:88:c9:81:6b:9e:2f:b5:bd:a1:a1:3c:
         11:50:71:6a:27:c7:2f:78:80:5a:f7:fb:fa:fe:ba:cb:87:04:
         da:75:38:d3:e0:8b:01:2e:10:e5:8c:3f:6c:78:c8:10:28:c2:
         33:4c:fb:b5:a0:f2:1d:e6:31:9a:5d:f1:12:96:57:e4:05:78:
         e9:a4:c1:fc:e3:76:ac:43:2c:ca:94:e9:9a:ad:d2:07:ad:00:
         e6:c6:b2:7f:11:74:44:76:fa:84:18:4e:46:f4:31:ab:6a:39:
         31:73:16:80:d0:77:ad:f5:6d:73:74:b9:61:ac:57:e3:20:51:
         c1:05:36:69:b1:98:0d:7b:d8:ab:0f:d9:58:1a:4e:50:4b:4f:
         20:73:74:e4:d9:f2:ab:99:3c:06:e8:a7:98:86:6b:7a:c8:7a:
         9e:6f:de:58:91:0d:eb:a1:92:97:5e:95:3f:0f:88:4d:e7:7f:
         a2:03:7f:b2:c6:44:8d:94:d2:00:bc:14:dd:6f:0f:f8:90:93:
         e0:66:1e:bb:eb:cc:ac:0c:de:3a:4a:27:a4:5e:25:6a:3d:e4:
         10:7e:e6:55:56:55:7e:44:9a:17:b3:ee:55:c6:64:3d:76:0c:
         a7:79:f1:cf:83:de:fd:52:36:6c:76:ce:fd:c1:3c:b7:8d:e9:
         fc:07:16:2b:63:54:4a:2f:a0:d1:10:84:7a:a2:eb:20:74:98:
         24:da:cb:55:5a:86:4c:30:ae:c5:cf:68:12:77:eb:25:a9:a6:
         19:87:8d:75:c0:a2:5a:ad:fa:f1:b7:18:74:0b:dd:e7:a6:ef:
         e3:04:75:5a:3f:58:d3:44:2c:dd:dd:cb:b8:90:50:05:bf:6e:
         9b:84:6a:9e:e4:95:ec:9e:b4:d7:29:5d:b5:c2:ea:c9:29:f8:
         c6:a9:67:72:b0:81:8b:d4:e8:de:1e:da:a6:b7:2a:6b:64:a4:
         48:2d:8b:aa:5d:65:e8:aa:95:03:c7:28:1d:1b:b6:64:88:d4:
         30:02:a4:a7:22:58:3e:a1:3d:37:ab:3a:57:33:4e:1c:7d:f4:
         2c:e6:48:c6:3a:dd:8e:81:3f:b6:57:8a:c6:82:55:42:04:af:
         9c:81:d4:71:5c:b0:b4:c8:6a:4f:14:97:a4:2b:d2:1f:c5:f1:
         7f:60:34:66:ee:33:3a:9d:6e:8b:be:f5:5e:33:fc:69:7a:0c:
         41:a8:c3:0a:97:1a:80:e8:49:73:43:cd:d1:c7:91:9d:f2:70:
         ca:65:09:df:67:76:e2:62:cc:0f:6c:e2:93:8b:89:7e:23:d2:
         47:a5:b4:61:44:82:c7:f0
-----BEGIN CERTIFICATE-----
MIIGmzCCBIOgAwIBAgIDEAABMA0GCSqGSIb3DQEBCwUAMIGTMRowGAYDVQQDExFE
dXBsaWNhdGUgSGFzaCBDQTELMAkGA1UEBhMCVVMxFjAUBgNVBAgTDU1hc3NhY2h1
c2V0dHMxEDAOBgNVBAoTB1hhbWFyaW4xFDASBgNVBAsTC0VuZ2luZWVyaW5nMSgw
JgYJKoZIhvcNAQkBFhltYXJ0aW4uYmF1bGlnQHhhbWFyaW4uY29tMB4XDTE2MTEx
NjE2MjgwMVoXDTI2MTExNDE2MjgwMVowcjELMAkGA1UEBhMCVVMxFjAUBgNVBAgT
DU1hc3NhY2h1c2V0dHMxEDAOBgNVBAoTB1hhbWFyaW4xFDASBgNVBAsTC0VuZ2lu
ZWVyaW5nMSMwIQYDVQQDExpwdWJsaWMuSGFtaWxsZXItVHViZS5sb2NhbDCCAiIw
DQYJKoZIhvcNAQEBBQADggIPADCCAgoCggIBALR/BvG3FKGgA99UKxKgacB5ZFcr
59llZyJHO2EtRDypqsk2L72Gi5cRJ03z3tVRqGjsOxkCzYQNAR9PUOFmqZBUl/8E
Q/T+Q/tY/H7zc1DishCQPgazyXzRQnBkWZwoLdqrx5l67LFuPNr6BFedW38bXMmR
ZieX3b+auVYLP2kLFiXKiAbj7HzSier15mAQE0tBoC67O3HOWSxUxAUBXpR4VlCi
DgVv5PGgo0ydYcBdL59qwHTxejjLn4Z21BwLtE57HxyA94sE1KRdzAAXhqcd3TG+
eA2wT9Cdor8kkvbq1ohvCCcPTSSb3/cWH3FyyaQX+Kc5X+6f7NmCYtzmNelGg++c
RIrQXsbkISlVddSVY+lamXTUbXmG9yQdpEPfzTOPrdLocx/WRCY6KBof5NgSkjq+
Ti+ZGRoeRKajDFbPnQaSnKkcjhncbmg51rdvq38RePOiLndeafN1RqGHiy0Mdbdg
UAPh+0KJSxCkc6U76zfh3PPnJMAm0Jp9u34ihlMBO2pljnavFvcgnW9KQKlPocWW
6W8/NwfQ0gG75J6BxMsxD68MZcffJWUjk7bYgjRNv6Gy0MGnC49CPogUjdciHTqh
HorqeYYZNwnGbZGrpwEFRX3fItdO2l9DFVfhhF+nsDqC26aGWlc5LohJW3NvvDk9
WQgRok04CKdwWXqtAgMBAAGjggEWMIIBEjAOBgNVHQ8BAf8EBAMCBaAwFgYDVR0l
AQH/BAwwCgYIKwYBBQUHAwEwHQYDVR0OBBYEFIDBhIvBmcxPnIq2GaS7cHo2sfEx
MIHIBgNVHSMEgcAwgb2AFHvmPiZUmlRnOM2RgI8dDhoeA8oUoYGZpIGWMIGTMRow
GAYDVQQDExFEdXBsaWNhdGUgSGFzaCBDQTELMAkGA1UEBhMCVVMxFjAUBgNVBAgT
DU1hc3NhY2h1c2V0dHMxEDAOBgNVBAoTB1hhbWFyaW4xFDASBgNVBAsTC0VuZ2lu
ZWVyaW5nMSgwJgYJKoZIhvcNAQkBFhltYXJ0aW4uYmF1bGlnQHhhbWFyaW4uY29t
ggkA5gvI2GEKWUUwDQYJKoZIhvcNAQELBQADggIBAJw9sav+0MJnaZadff3Y3OaQ
RnH+bxMTSjyIyYFrni+1vaGhPBFQcWonxy94gFr3+/r+usuHBNp1ONPgiwEuEOWM
P2x4yBAowjNM+7Wg8h3mMZpd8RKWV+QFeOmkwfzjdqxDLMqU6Zqt0getAObGsn8R
dER2+oQYTkb0MatqOTFzFoDQd631bXN0uWGsV+MgUcEFNmmxmA172KsP2VgaTlBL
TyBzdOTZ8quZPAbop5iGa3rIep5v3liRDeuhkpdelT8PiE3nf6IDf7LGRI2U0gC8
FN1vD/iQk+BmHrvrzKwM3jpKJ6ReJWo95BB+5lVWVX5Emhez7lXGZD12DKd58c+D
3v1SNmx2zv3BPLeN6fwHFitjVEovoNEQhHqi6yB0mCTay1VahkwwrsXPaBJ36yWp
phmHjXXAolqt+vG3GHQL3eem7+MEdVo/WNNELN3dy7iQUAW/bpuEap7kleyetNcp
XbXC6skp+MapZ3KwgYvU6N4e2qa3KmtkpEgti6pdZeiqlQPHKB0btmSI1DACpKci
WD6hPTerOlczThx99CzmSMY63Y6BP7ZXisaCVUIEr5yB1HFcsLTIak8Ul6Qr0h/F
8X9gNGbuMzqdbou+9V4z/Gl6DEGowwqXGoDoSXNDzdHHkZ3ycMplCd9nduJizA9s
4pOLiX4j0keltGFEgsfw
-----END CERTIFICATE-----
