Certificate:
    Data:
        Version: 3 (0x2)
        Serial Number: 1048578 (0x100002)
        Signature Algorithm: sha256WithRSAEncryption
        Issuer: C=US, ST=Massachusetts, O=Xamarin, OU=Engineering, CN=Hamiller Tube Intermediate CA
        Validity
            Not Before: Aug 10 14:08:06 2016 GMT
            Not After : Aug  8 14:08:06 2026 GMT
        Subject: C=US, ST=Massachusetts, O=Xamarin, OU=Server Certificate using Intermediate CA, CN=Intermediate-Server.local
        Subject Public Key Info:
            Public Key Algorithm: rsaEncryption
            RSA Public Key: (4096 bit)
                Modulus (4096 bit):
                    00:9b:3e:f1:23:55:75:83:13:64:63:a5:c9:54:e1:
                    e0:cd:da:ae:7c:a4:01:45:13:0a:34:77:90:c9:1e:
                    3f:a8:6a:e5:67:e9:27:3f:4c:84:48:01:65:68:1c:
                    87:7e:0e:a7:fa:6e:a1:06:95:a0:9b:2a:1b:94:61:
                    41:ec:5a:d2:bc:b2:af:04:3b:42:2e:58:d2:43:37:
                    05:33:7f:eb:3c:bc:4a:d5:28:ca:52:be:bb:5b:cd:
                    74:81:e2:c5:ba:be:a2:9a:2e:ab:bf:97:c8:8b:1f:
                    19:64:89:30:67:a7:62:a7:d0:48:b4:10:36:3d:2d:
                    b6:4d:79:f2:e9:f6:c1:66:fe:c7:de:cd:f0:9a:3e:
                    bd:5f:3f:26:65:c0:a8:bc:5c:17:9a:ad:10:b4:9b:
                    15:09:4d:ec:16:4f:51:5d:7b:93:40:cd:77:a9:61:
                    0c:87:d3:af:c0:7b:99:a1:2c:fe:8e:b9:63:98:03:
                    dc:70:ea:60:fe:9d:cb:7e:25:72:85:4c:c9:19:b8:
                    42:6b:1a:2f:32:9f:fe:b6:15:11:1d:06:65:c8:23:
                    ac:d5:14:e9:03:37:64:fa:c7:d5:86:bc:55:10:61:
                    6c:74:47:94:4c:39:f5:0c:12:8e:55:a3:a8:52:e2:
                    a5:9d:a6:12:b5:2b:3e:f4:b3:af:a5:3e:7d:39:07:
                    57:6f:80:d8:08:c2:a3:d4:ed:91:0f:ae:fc:13:85:
                    4a:b8:9d:f8:6a:49:1f:b5:2c:e0:76:31:23:2d:08:
                    08:a5:32:cf:9c:b4:9a:7f:6c:25:87:f1:ff:35:44:
                    d6:a5:ed:3c:72:ef:34:df:4c:41:cb:f8:1c:cc:d8:
                    8f:68:b5:50:07:b3:10:b5:3f:32:53:91:88:1f:d7:
                    3d:c4:5a:63:e2:fc:63:6c:72:02:b5:a2:69:85:1c:
                    0b:ff:17:3c:01:9f:48:81:61:55:44:fe:bd:b7:9c:
                    8a:3a:28:d8:ec:59:a9:e3:82:2c:44:bc:41:7c:56:
                    8d:03:6f:dd:44:f4:1d:9b:5b:3f:d8:28:4e:51:72:
                    06:1f:16:e6:3a:62:98:e3:18:29:d1:b1:f7:be:ed:
                    61:4e:8b:eb:8f:30:df:d2:b6:1c:05:8d:7d:7c:f4:
                    ea:e5:1c:9a:32:74:b6:9d:71:72:a4:b0:21:e3:e3:
                    d1:9e:27:7c:02:e7:a4:59:18:1f:52:e3:e1:0d:82:
                    ad:55:c5:c5:6f:41:73:ae:f3:c6:a4:0a:89:39:9f:
                    e8:89:ec:60:51:5d:fc:a2:3b:ef:a8:57:c6:33:cd:
                    f2:56:a8:fe:6a:c2:b4:48:4e:27:1d:63:6f:46:e5:
                    0e:05:07:a2:27:28:ec:c1:06:6b:2f:35:0c:46:8a:
                    99:2e:85
                Exponent: 65537 (0x10001)
        X509v3 extensions:
            X509v3 Key Usage: critical
                Digital Signature, Key Encipherment
            X509v3 Extended Key Usage: critical
                TLS Web Server Authentication
    Signature Algorithm: sha256WithRSAEncryption
        b8:ab:a7:6a:1e:39:41:d5:ea:0b:50:57:e9:f9:70:fc:7d:4d:
        2c:4a:26:64:19:be:27:7d:b7:73:8d:ed:a9:82:3d:1c:db:ec:
        f5:67:97:99:42:f7:38:f7:ec:45:b7:99:db:9d:b1:f7:33:15:
        cb:d9:0c:8f:c3:e4:79:ef:19:13:18:f3:d3:5d:a4:91:45:4d:
        07:1a:1f:38:1f:54:9d:65:ef:63:fd:91:91:c1:0c:67:9c:22:
        d5:55:44:9b:54:2f:db:d0:9b:44:cf:08:19:72:3d:30:10:98:
        ab:9d:70:cd:d8:cf:4f:81:c0:5d:6f:7b:51:ce:cc:11:96:65:
        dc:41:81:c2:84:9f:22:50:44:da:1a:28:8e:ab:7b:f8:10:c5:
        fa:b0:53:4b:71:46:a7:f2:0b:c2:fd:f8:ef:91:53:3e:40:c9:
        6c:aa:11:19:dd:91:9b:11:8d:fd:d0:6f:55:0f:5d:fc:f7:1f:
        90:e3:e5:e9:43:f2:78:04:d0:f9:c7:ba:4c:26:f0:78:2c:31:
        bb:2d:86:90:7a:2e:f3:fb:e1:92:96:81:e1:4b:aa:7c:2e:89:
        6e:8e:4e:b0:32:f2:b5:37:93:e1:2c:ce:bb:10:58:d6:ab:a1:
        b7:ab:66:d2:01:ac:51:4c:b3:9b:f4:f1:aa:87:ae:92:e6:db:
        a8:5e:94:c0:5a:4e:5e:10:f1:a1:54:a9:e1:24:4a:60:5f:68:
        7b:07:08:f5:1c:8e:4d:fe:20:8d:83:56:86:3f:18:fc:69:50:
        a7:14:72:8c:ed:1a:65:0b:81:c8:4d:2c:c9:84:85:91:0d:71:
        08:4b:d3:68:0f:e2:49:1b:96:5b:de:a9:35:e1:a0:1c:83:55:
        c2:19:9e:d9:bb:5f:8d:1e:5d:f5:4b:b1:da:ea:d9:04:92:f8:
        d3:80:8a:d3:e7:1f:69:0d:03:77:a9:e4:a0:ad:66:9a:52:dd:
        85:71:2c:4d:12:f3:fe:d8:74:19:ee:c6:e9:03:38:4a:f2:67:
        6a:14:f4:52:87:97:8f:06:b6:6e:e7:2d:3e:78:ae:f7:de:4e:
        4e:66:8c:0d:2e:4e:14:54:f2:e9:9d:40:22:7a:6d:92:76:47:
        10:17:98:e6:a0:48:0d:de:3f:d0:7a:14:79:38:00:f6:30:39:
        80:5a:3c:d6:e8:d2:1e:47:24:91:2e:ca:35:21:d3:26:7c:77:
        41:ad:8b:97:dd:07:16:18:46:cf:8b:20:c9:c6:d1:83:7b:aa:
        fe:63:9f:41:3d:3f:7e:23:ee:b7:db:77:15:3a:1d:4e:c6:7d:
        f9:16:c6:7c:4f:e6:6d:42:aa:3b:a3:e7:35:d9:42:d0:d7:c6:
        7e:a0:4a:63:c7:ab:66:af
-----BEGIN CERTIFICATE-----
MIIFqzCCA5OgAwIBAgIDEAACMA0GCSqGSIb3DQEBCwUAMHUxCzAJBgNVBAYTAlVT
MRYwFAYDVQQIEw1NYXNzYWNodXNldHRzMRAwDgYDVQQKEwdYYW1hcmluMRQwEgYD
VQQLEwtFbmdpbmVlcmluZzEmMCQGA1UEAxMdSGFtaWxsZXIgVHViZSBJbnRlcm1l
ZGlhdGUgQ0EwHhcNMTYwODEwMTQwODA2WhcNMjYwODA4MTQwODA2WjCBjjELMAkG
A1UEBhMCVVMxFjAUBgNVBAgTDU1hc3NhY2h1c2V0dHMxEDAOBgNVBAoTB1hhbWFy
aW4xMTAvBgNVBAsTKFNlcnZlciBDZXJ0aWZpY2F0ZSB1c2luZyBJbnRlcm1lZGlh
dGUgQ0ExIjAgBgNVBAMTGUludGVybWVkaWF0ZS1TZXJ2ZXIubG9jYWwwggIiMA0G
CSqGSIb3DQEBAQUAA4ICDwAwggIKAoICAQCbPvEjVXWDE2RjpclU4eDN2q58pAFF
Ewo0d5DJHj+oauVn6Sc/TIRIAWVoHId+Dqf6bqEGlaCbKhuUYUHsWtK8sq8EO0Iu
WNJDNwUzf+s8vErVKMpSvrtbzXSB4sW6vqKaLqu/l8iLHxlkiTBnp2Kn0Ei0EDY9
LbZNefLp9sFm/sfezfCaPr1fPyZlwKi8XBearRC0mxUJTewWT1Fde5NAzXepYQyH
06/Ae5mhLP6OuWOYA9xw6mD+nct+JXKFTMkZuEJrGi8yn/62FREdBmXII6zVFOkD
N2T6x9WGvFUQYWx0R5RMOfUMEo5Vo6hS4qWdphK1Kz70s6+lPn05B1dvgNgIwqPU
7ZEPrvwThUq4nfhqSR+1LOB2MSMtCAilMs+ctJp/bCWH8f81RNal7Txy7zTfTEHL
+BzM2I9otVAHsxC1PzJTkYgf1z3EWmPi/GNscgK1ommFHAv/FzwBn0iBYVVE/r23
nIo6KNjsWanjgixEvEF8Vo0Db91E9B2bWz/YKE5RcgYfFuY6YpjjGCnRsfe+7WFO
i+uPMN/SthwFjX189OrlHJoydLadcXKksCHj49GeJ3wC56RZGB9S4+ENgq1VxcVv
QXOu88akCok5n+iJ7GBRXfyiO++oV8YzzfJWqP5qwrRITicdY29G5Q4FB6InKOzB
BmsvNQxGipkuhQIDAQABoyowKDAOBgNVHQ8BAf8EBAMCBaAwFgYDVR0lAQH/BAww
CgYIKwYBBQUHAwEwDQYJKoZIhvcNAQELBQADggIBALirp2oeOUHV6gtQV+n5cPx9
TSxKJmQZvid9t3ON7amCPRzb7PVnl5lC9zj37EW3mdudsfczFcvZDI/D5HnvGRMY
89NdpJFFTQcaHzgfVJ1l72P9kZHBDGecItVVRJtUL9vQm0TPCBlyPTAQmKudcM3Y
z0+BwF1ve1HOzBGWZdxBgcKEnyJQRNoaKI6re/gQxfqwU0txRqfyC8L9+O+RUz5A
yWyqERndkZsRjf3Qb1UPXfz3H5Dj5elD8ngE0PnHukwm8HgsMbsthpB6LvP74ZKW
geFLqnwuiW6OTrAy8rU3k+EszrsQWNaroberZtIBrFFMs5v08aqHrpLm26helMBa
Tl4Q8aFUqeEkSmBfaHsHCPUcjk3+II2DVoY/GPxpUKcUcoztGmULgchNLMmEhZEN
cQhL02gP4kkbllveqTXhoByDVcIZntm7X40eXfVLsdrq2QSS+NOAitPnH2kNA3ep
5KCtZppS3YVxLE0S8/7YdBnuxukDOEryZ2oU9FKHl48Gtm7nLT54rvfeTk5mjA0u
ThRU8umdQCJ6bZJ2RxAXmOagSA3eP9B6FHk4APYwOYBaPNbo0h5HJJEuyjUh0yZ8
d0Gti5fdBxYYRs+LIMnG0YN7qv5jn0E9P34j7rfbdxU6HU7GffkWxnxP5m1Cqjuj
5zXZQtDXxn6gSmPHq2av
-----END CERTIFICATE-----
