Certificate:
    Data:
        Version: 3 (0x2)
        Serial Number: 1048587 (0x10000b)
    Signature Algorithm: sha256WithRSAEncryption
        Issuer: C=US, ST=Massachusetts, O=Xamarin, OU=Engineering, CN=Hamiller Tube Intermediate CA
        Validity
            Not Before: Nov  9 02:43:05 2016 GMT
            Not After : Nov  7 02:43:05 2026 GMT
        Subject: C=US, ST=Massachusetts, O=Xamarin, OU=Engineering, CN=*.Hamiller-Tube.local
        Subject Public Key Info:
            Public Key Algorithm: rsaEncryption
                Public-Key: (4096 bit)
                Modulus:
                    00:c7:80:59:d0:1c:d7:93:e8:40:c3:ae:e7:18:18:
                    a4:8d:fd:f5:b4:d4:a7:55:bb:81:79:c1:f6:56:b9:
                    ec:1f:b6:ea:b0:f8:b5:4d:10:36:8a:f9:be:5c:67:
                    57:e9:21:eb:bb:a6:bb:9f:f5:15:46:ef:40:98:72:
                    26:4d:53:d8:37:28:42:ff:70:7e:f3:83:58:65:72:
                    29:ee:1e:34:ce:ba:c5:54:d0:0a:d0:9a:f4:18:cd:
                    87:d9:8d:03:1e:cb:1f:a4:49:3a:16:b7:b2:36:0c:
                    4a:7c:0f:e3:ee:19:37:42:8b:b9:7e:33:42:cd:3a:
                    07:f1:61:da:e0:fc:9b:73:64:18:b6:59:4b:f0:5e:
                    e3:35:28:b7:d3:40:31:3d:33:fb:ce:f7:88:1a:16:
                    24:a8:7b:25:43:01:3f:90:44:35:55:e5:b1:fc:17:
                    8b:ac:27:33:89:46:d6:49:b5:08:7f:e7:6d:47:7f:
                    8b:76:1b:2d:c8:d9:53:e6:25:cc:00:4a:0e:8a:2f:
                    0b:9a:94:8c:9f:78:97:84:60:fd:05:09:0c:d7:e8:
                    31:48:8d:08:e2:cd:db:28:3f:eb:ef:20:f0:f3:53:
                    c5:eb:63:8a:e9:48:51:68:25:4f:fa:66:dd:fb:2c:
                    ae:e0:0c:c5:ee:b4:ae:96:d7:7c:ba:07:7f:54:2b:
                    b7:90:e1:f7:4a:85:4d:ac:26:1b:ce:dd:c1:3d:9e:
                    27:79:a2:f2:a1:46:1a:18:6f:ab:19:a3:e0:79:21:
                    3d:e6:d8:19:ae:c8:bc:31:d6:29:73:59:b6:8b:5c:
                    b0:18:85:65:4f:73:98:53:d1:69:05:41:24:90:cd:
                    a9:e4:5e:b5:93:cc:20:cd:ff:4d:f6:d6:b3:ad:4e:
                    68:59:e7:4c:9f:3b:9b:e0:52:f9:8d:5d:9e:7d:b1:
                    20:c3:9b:50:07:73:78:b7:ff:cb:38:28:04:b3:08:
                    81:b7:c1:9b:43:eb:fb:08:a6:63:f9:26:2c:4b:eb:
                    04:eb:2b:57:7e:81:45:c5:84:35:1a:6b:ee:6f:cb:
                    70:c7:3f:78:bc:c4:0e:f0:a8:96:77:06:14:11:2c:
                    a9:2e:5f:49:bd:2b:49:1b:7d:00:2d:60:bf:15:7e:
                    9c:a3:5b:23:44:e2:70:cc:f6:14:f0:81:4c:98:d2:
                    41:92:d2:e6:b5:aa:2a:35:04:85:20:fa:3c:9a:b2:
                    66:0e:b8:08:86:d3:ca:70:04:2a:bb:e2:bf:74:6f:
                    42:73:3e:56:b1:38:7f:56:f0:46:14:3f:3a:0f:de:
                    44:5c:be:3b:33:13:0a:70:15:cd:48:a6:bc:8f:5f:
                    b4:41:ac:3f:92:98:77:4f:b5:4e:d8:c4:39:a4:e2:
                    ca:a9:0b
                Exponent: 65537 (0x10001)
        X509v3 extensions:
            X509v3 Key Usage: critical
                Digital Signature, Key Encipherment
            X509v3 Extended Key Usage: critical
                TLS Web Server Authentication
            X509v3 Subject Alternative Name: 
                DNS:test0001, DNS:test0002, DNS:martin.Hamiller-Tube.local, DNS:*.Hamiller-Tube.local
    Signature Algorithm: sha256WithRSAEncryption
         95:a3:03:f4:c7:c0:ca:0d:4d:f0:64:ce:74:20:db:b7:87:1b:
         7c:bd:5b:da:d2:2a:51:03:e8:3c:fa:8e:04:88:27:0c:bb:3a:
         9a:4f:8a:4f:09:dd:bd:fb:90:f9:50:3d:c7:f6:73:2c:3b:15:
         db:b2:15:93:97:2d:a7:d9:1c:80:e5:91:a3:24:0f:d7:b5:0b:
         b4:39:db:bd:80:4e:91:aa:74:9c:9a:62:08:5d:a2:0e:16:c1:
         ff:a9:a8:29:c9:f9:91:3c:0d:1d:56:1f:6b:47:8e:87:ab:e5:
         9a:5c:02:e0:72:b1:a6:93:7b:70:01:7e:8a:f6:88:a6:8f:8d:
         a8:5e:aa:4c:f5:00:32:49:3f:75:2d:74:0c:cf:cc:31:c9:e7:
         b6:64:d1:b7:fa:30:d9:57:1b:19:0b:b8:a0:ae:e7:c9:af:28:
         64:88:5b:8e:08:eb:0a:d7:65:8e:e2:2d:b3:e8:06:e2:eb:05:
         9c:e9:29:6b:b6:e0:11:d9:ee:21:11:52:b4:94:6a:dc:f1:3a:
         59:e9:59:d8:74:b2:ad:07:6e:83:fc:5b:34:28:59:e5:7b:0c:
         5c:0f:7e:ea:1c:6a:2f:0e:51:40:c5:27:76:16:f7:5e:c9:88:
         5b:af:62:36:9f:75:77:24:04:f9:f4:b3:f7:ad:41:25:4f:a4:
         1a:4d:fe:8f:f2:ce:50:34:9d:4d:55:91:28:cb:c8:f5:48:53:
         e5:9d:65:d4:a7:b1:ad:da:93:6f:1c:a0:4f:d7:3e:cb:ce:b7:
         ef:5f:a0:50:c6:9d:0f:f9:90:d0:62:7e:9a:14:5e:30:72:db:
         80:e3:a3:8d:fc:df:f7:c2:0a:d9:80:e6:c5:90:cf:5a:a1:be:
         ff:9a:6e:63:65:dc:e9:fd:3f:67:c4:bc:74:53:95:60:45:66:
         45:63:1b:e4:5e:b2:2a:c1:63:c4:bd:14:e7:40:1b:04:68:e0:
         2b:3e:9b:e8:d6:4d:f5:ef:9f:4f:1e:56:f7:a7:56:0d:3c:00:
         3c:32:97:83:10:ed:cc:56:85:e5:ca:6d:ea:bb:18:b8:ab:d4:
         69:bc:b1:8c:c4:b8:21:39:08:d4:d5:b0:9e:c1:26:23:ef:f3:
         3d:25:4f:7a:e7:ad:32:f2:f9:54:39:bc:6f:cf:6c:ab:3b:fc:
         2d:c5:45:66:7b:26:64:a1:3b:87:70:55:88:54:ac:eb:21:ad:
         b7:65:ec:1e:72:e0:82:c6:a7:2d:a5:f6:af:36:3b:b3:6a:77:
         52:9a:7a:59:bb:74:2b:02:cd:92:ab:77:20:73:54:8b:b8:47:
         64:b8:fd:75:7e:28:6b:c7:fe:e5:9e:df:7e:95:8e:d4:7b:56:
         b2:7f:9a:db:5e:b7:19:e3
-----BEGIN CERTIFICATE-----
MIIF2zCCA8OgAwIBAgIDEAALMA0GCSqGSIb3DQEBCwUAMHUxCzAJBgNVBAYTAlVT
MRYwFAYDVQQIEw1NYXNzYWNodXNldHRzMRAwDgYDVQQKEwdYYW1hcmluMRQwEgYD
VQQLEwtFbmdpbmVlcmluZzEmMCQGA1UEAxMdSGFtaWxsZXIgVHViZSBJbnRlcm1l
ZGlhdGUgQ0EwHhcNMTYxMTA5MDI0MzA1WhcNMjYxMTA3MDI0MzA1WjBtMQswCQYD
VQQGEwJVUzEWMBQGA1UECBMNTWFzc2FjaHVzZXR0czEQMA4GA1UEChMHWGFtYXJp
bjEUMBIGA1UECxMLRW5naW5lZXJpbmcxHjAcBgNVBAMUFSouSGFtaWxsZXItVHVi
ZS5sb2NhbDCCAiIwDQYJKoZIhvcNAQEBBQADggIPADCCAgoCggIBAMeAWdAc15Po
QMOu5xgYpI399bTUp1W7gXnB9la57B+26rD4tU0QNor5vlxnV+kh67umu5/1FUbv
QJhyJk1T2DcoQv9wfvODWGVyKe4eNM66xVTQCtCa9BjNh9mNAx7LH6RJOha3sjYM
SnwP4+4ZN0KLuX4zQs06B/Fh2uD8m3NkGLZZS/Be4zUot9NAMT0z+873iBoWJKh7
JUMBP5BENVXlsfwXi6wnM4lG1km1CH/nbUd/i3YbLcjZU+YlzABKDoovC5qUjJ94
l4Rg/QUJDNfoMUiNCOLN2yg/6+8g8PNTxetjiulIUWglT/pm3fssruAMxe60rpbX
fLoHf1Qrt5Dh90qFTawmG87dwT2eJ3mi8qFGGhhvqxmj4HkhPebYGa7IvDHWKXNZ
totcsBiFZU9zmFPRaQVBJJDNqeRetZPMIM3/TfbWs61OaFnnTJ87m+BS+Y1dnn2x
IMObUAdzeLf/yzgoBLMIgbfBm0Pr+wimY/kmLEvrBOsrV36BRcWENRpr7m/LcMc/
eLzEDvColncGFBEsqS5fSb0rSRt9AC1gvxV+nKNbI0TicMz2FPCBTJjSQZLS5rWq
KjUEhSD6PJqyZg64CIbTynAEKrviv3RvQnM+VrE4f1bwRhQ/Og/eRFy+OzMTCnAV
zUimvI9ftEGsP5KYd0+1TtjEOaTiyqkLAgMBAAGjfDB6MA4GA1UdDwEB/wQEAwIF
oDAWBgNVHSUBAf8EDDAKBggrBgEFBQcDATBQBgNVHREESTBHggh0ZXN0MDAwMYII
dGVzdDAwMDKCGm1hcnRpbi5IYW1pbGxlci1UdWJlLmxvY2FsghUqLkhhbWlsbGVy
LVR1YmUubG9jYWwwDQYJKoZIhvcNAQELBQADggIBAJWjA/THwMoNTfBkznQg27eH
G3y9W9rSKlED6Dz6jgSIJwy7OppPik8J3b37kPlQPcf2cyw7FduyFZOXLafZHIDl
kaMkD9e1C7Q5272ATpGqdJyaYghdog4Wwf+pqCnJ+ZE8DR1WH2tHjoer5ZpcAuBy
saaTe3ABfor2iKaPjaheqkz1ADJJP3UtdAzPzDHJ57Zk0bf6MNlXGxkLuKCu58mv
KGSIW44I6wrXZY7iLbPoBuLrBZzpKWu24BHZ7iERUrSUatzxOlnpWdh0sq0HboP8
WzQoWeV7DFwPfuocai8OUUDFJ3YW917JiFuvYjafdXckBPn0s/etQSVPpBpN/o/y
zlA0nU1VkSjLyPVIU+WdZdSnsa3ak28coE/XPsvOt+9foFDGnQ/5kNBifpoUXjBy
24Djo4383/fCCtmA5sWQz1qhvv+abmNl3On9P2fEvHRTlWBFZkVjG+ResirBY8S9
FOdAGwRo4Cs+m+jWTfXvn08eVvenVg08ADwyl4MQ7cxWheXKbeq7GLir1Gm8sYzE
uCE5CNTVsJ7BJiPv8z0lT3rnrTLy+VQ5vG/PbKs7/C3FRWZ7JmShO4dwVYhUrOsh
rbdl7B5y4ILGpy2l9q82O7Nqd1Kaelm7dCsCzZKrdyBzVIu4R2S4/XV+KGvH/uWe
336VjtR7VrJ/mttetxnj
-----END CERTIFICATE-----
