Certificate:
    Data:
        Version: 3 (0x2)
        Serial Number: 1048577 (0x100001)
        Signature Algorithm: sha256WithRSAEncryption
        Issuer: CN=Hamiller Tube CA, C=US, ST=Massachusetts, O=Xamarin, OU=Engineering/emailAddress=martin.baulig@xamarin.com
        Validity
            Not Before: Aug 10 14:06:33 2016 GMT
            Not After : Aug  8 14:06:33 2026 GMT
        Subject: C=US, ST=Massachusetts, O=Xamarin, OU=Engineering, CN=Hamiller Tube Intermediate CA
        Subject Public Key Info:
            Public Key Algorithm: rsaEncryption
            RSA Public Key: (4096 bit)
                Modulus (4096 bit):
                    00:bb:4f:a2:47:1f:3f:06:b0:f3:72:33:d9:3e:25:
                    cc:db:05:c3:0d:cc:9c:15:05:02:24:35:18:00:c5:
                    f1:67:99:3e:5c:a0:5e:a1:4a:76:ad:83:ab:94:63:
                    4f:b6:3c:96:af:01:00:3a:7b:e6:b6:10:e0:f3:20:
                    7e:dc:7a:f9:2d:7e:32:e0:7f:13:d0:f5:d4:3b:81:
                    80:e5:b4:fa:a1:fa:84:9f:db:df:12:1a:0f:18:d4:
                    7c:e1:56:42:e0:a9:42:11:41:59:77:e8:6d:5f:01:
                    02:b9:5d:75:94:1b:6c:6b:67:73:d3:9f:b9:a8:bd:
                    4e:c8:c9:3b:ef:f6:8f:16:bb:76:d1:ed:45:ca:6a:
                    a3:b8:d1:a6:78:ff:54:c4:1f:3a:e2:b2:96:f0:29:
                    5d:89:99:e7:70:ae:3a:e4:91:04:26:e0:4c:e4:9d:
                    32:54:26:a2:75:f8:d3:fa:f0:a2:6a:74:05:48:ee:
                    5e:90:55:8d:60:12:4b:72:6b:5e:ea:1d:4b:ee:71:
                    26:bf:7b:89:3c:f2:fe:d2:89:db:ca:5c:fd:36:a4:
                    f5:38:64:3a:89:83:7a:7c:79:f5:d7:a5:cc:c5:e3:
                    25:23:8c:24:d6:13:f5:04:77:f1:54:6a:55:d0:76:
                    24:c5:80:64:9f:dc:06:22:f3:a1:4e:2a:ee:27:38:
                    0a:bc:53:b1:4e:db:e2:42:ff:94:10:fa:cf:a7:2d:
                    e8:ce:28:f5:db:db:fe:0b:a6:a0:c2:4a:c4:44:93:
                    58:1d:67:d8:23:49:02:9f:cb:14:d3:13:3a:ed:d8:
                    43:e6:7f:5b:fc:91:4c:7c:69:5b:47:8c:62:68:dc:
                    4f:f5:f7:f0:56:ac:7a:3c:b5:9d:67:ad:a6:56:f7:
                    19:a8:9e:34:3a:4d:0e:c8:67:b6:83:4a:59:47:fe:
                    12:a4:33:af:46:fb:21:ad:86:8a:f4:a0:5f:4f:49:
                    6c:ac:3d:6b:ed:01:8c:95:4a:e4:f0:ea:e6:02:5e:
                    65:f7:a8:6a:97:fe:07:a9:8b:82:14:28:39:91:b1:
                    02:d7:09:67:ba:80:81:59:15:ae:f0:c3:fa:c5:35:
                    99:38:11:c0:d7:1a:7f:23:86:48:5e:ea:c3:48:45:
                    66:1b:90:ba:b0:96:77:1d:66:6c:ce:06:d4:67:ec:
                    cb:fd:4e:c6:d8:23:3e:71:85:3b:9d:ca:8f:4e:ac:
                    98:a0:24:f0:2c:b3:21:0d:74:cc:aa:e6:6d:dd:ed:
                    df:9b:47:6a:ca:dc:3b:41:2a:a1:eb:a3:9c:c4:60:
                    67:1c:1f:c1:97:87:b5:d3:fe:e4:73:6a:f7:bb:fd:
                    06:1a:e6:27:59:4e:91:79:b9:c9:9f:58:e1:89:83:
                    08:16:6f
                Exponent: 65537 (0x10001)
        X509v3 extensions:
            X509v3 Basic Constraints: critical
                CA:TRUE, pathlen:0
            X509v3 Key Usage: 
                Certificate Sign
    Signature Algorithm: sha256WithRSAEncryption
        b6:b5:01:b5:93:08:c2:46:7a:e4:85:ff:ea:6c:ab:c6:de:1a:
        1e:27:b3:4a:b9:00:6d:57:cb:c0:89:26:eb:55:98:8b:ba:8f:
        21:ff:a4:98:20:1b:39:e4:0b:98:ca:ef:ca:bb:92:f0:a7:8f:
        75:1b:79:23:42:c7:f8:8e:a9:2d:cf:94:ad:d1:45:51:0a:04:
        a7:90:77:b7:db:65:91:a2:5c:9c:e6:a2:d3:62:ba:7a:12:89:
        47:ec:ca:74:da:0c:4e:db:9a:32:13:c9:8f:60:1b:e1:2d:f0:
        6c:8b:51:71:88:81:8e:76:82:49:8c:49:7b:c0:fe:a6:a4:a9:
        56:2e:d3:05:9c:61:fe:0a:7e:b7:2d:b1:97:31:0a:03:67:62:
        4a:24:5d:fa:21:c6:39:4d:d2:f0:73:b6:5f:1c:e3:d8:ba:f9:
        26:a1:a7:ca:ad:f6:8e:9e:be:82:3b:b9:1d:ca:74:6d:6b:45:
        24:71:be:8c:c5:9e:8c:60:c9:20:e5:4f:57:30:51:36:d8:ca:
        07:c3:48:6a:23:e2:3d:45:c8:86:5b:6c:97:58:fb:e2:8e:1c:
        35:02:c3:0c:86:de:8c:1a:51:5d:f1:e7:2e:71:d5:34:8b:57:
        d3:3a:8f:a4:a5:89:e6:d5:68:a0:1f:4a:ca:2b:e0:78:89:de:
        ce:e7:fe:2c:ab:4c:e2:de:c4:59:f9:a4:10:4b:a4:ed:38:5a:
        5d:df:a1:93:be:77:a8:0c:10:d1:a7:71:0d:40:e3:b9:69:b2:
        33:9f:11:67:62:97:b1:0d:de:c0:f6:ff:10:2e:2a:c8:2b:d9:
        59:2c:06:63:f0:f9:51:da:3c:2b:2b:57:14:ab:9e:2b:60:af:
        30:e4:29:1d:8d:81:60:ba:cb:e2:f3:7b:54:48:c8:85:3f:f0:
        41:1f:59:ee:02:52:21:2a:89:09:29:49:0c:90:ca:79:9e:d7:
        53:34:ee:44:db:64:53:58:27:2c:23:d6:1f:66:42:ce:d2:36:
        d9:e5:45:16:e8:37:f1:f1:79:e8:ba:5c:46:4e:b6:dd:56:34:
        fd:83:b8:7d:7a:25:2b:fb:49:18:96:2b:f5:b6:2c:27:6e:b9:
        7f:12:5a:fa:a9:93:09:2a:f9:9a:19:08:b5:fb:11:10:dd:a2:
        9c:7f:38:0f:24:54:f4:6b:d3:06:f0:8f:17:cb:09:5f:6b:5d:
        2f:39:89:3d:b8:f9:f9:e0:d5:cc:b6:e5:92:ba:5c:10:31:b4:
        73:b2:85:9f:b5:cb:1c:5d:7f:57:5a:1d:e4:01:c5:40:61:0c:
        cd:4c:8c:4f:30:7c:77:5b:fc:26:56:1d:d4:cd:81:fe:68:b9:
        32:d5:ce:17:f9:02:3e:e6
-----BEGIN CERTIFICATE-----
MIIFqDCCA5CgAwIBAgIDEAABMA0GCSqGSIb3DQEBCwUAMIGSMRkwFwYDVQQDExBI
YW1pbGxlciBUdWJlIENBMQswCQYDVQQGEwJVUzEWMBQGA1UECBMNTWFzc2FjaHVz
ZXR0czEQMA4GA1UEChMHWGFtYXJpbjEUMBIGA1UECxMLRW5naW5lZXJpbmcxKDAm
BgkqhkiG9w0BCQEWGW1hcnRpbi5iYXVsaWdAeGFtYXJpbi5jb20wHhcNMTYwODEw
MTQwNjMzWhcNMjYwODA4MTQwNjMzWjB1MQswCQYDVQQGEwJVUzEWMBQGA1UECBMN
TWFzc2FjaHVzZXR0czEQMA4GA1UEChMHWGFtYXJpbjEUMBIGA1UECxMLRW5naW5l
ZXJpbmcxJjAkBgNVBAMTHUhhbWlsbGVyIFR1YmUgSW50ZXJtZWRpYXRlIENBMIIC
IjANBgkqhkiG9w0BAQEFAAOCAg8AMIICCgKCAgEAu0+iRx8/BrDzcjPZPiXM2wXD
DcycFQUCJDUYAMXxZ5k+XKBeoUp2rYOrlGNPtjyWrwEAOnvmthDg8yB+3Hr5LX4y
4H8T0PXUO4GA5bT6ofqEn9vfEhoPGNR84VZC4KlCEUFZd+htXwECuV11lBtsa2dz
05+5qL1OyMk77/aPFrt20e1FymqjuNGmeP9UxB864rKW8CldiZnncK465JEEJuBM
5J0yVCaidfjT+vCianQFSO5ekFWNYBJLcmte6h1L7nEmv3uJPPL+0onbylz9NqT1
OGQ6iYN6fHn116XMxeMlI4wk1hP1BHfxVGpV0HYkxYBkn9wGIvOhTiruJzgKvFOx
TtviQv+UEPrPpy3ozij129v+C6agwkrERJNYHWfYI0kCn8sU0xM67dhD5n9b/JFM
fGlbR4xiaNxP9ffwVqx6PLWdZ62mVvcZqJ40Ok0OyGe2g0pZR/4SpDOvRvshrYaK
9KBfT0lsrD1r7QGMlUrk8OrmAl5l96hql/4HqYuCFCg5kbEC1wlnuoCBWRWu8MP6
xTWZOBHA1xp/I4ZIXurDSEVmG5C6sJZ3HWZszgbUZ+zL/U7G2CM+cYU7ncqPTqyY
oCTwLLMhDXTMquZt3e3fm0dqytw7QSqh66OcxGBnHB/Bl4e10/7kc2r3u/0GGuYn
WU6RebnJn1jhiYMIFm8CAwEAAaMjMCEwEgYDVR0TAQH/BAgwBgEB/wIBADALBgNV
HQ8EBAMCAgQwDQYJKoZIhvcNAQELBQADggIBALa1AbWTCMJGeuSF/+psq8beGh4n
s0q5AG1Xy8CJJutVmIu6jyH/pJggGznkC5jK78q7kvCnj3UbeSNCx/iOqS3PlK3R
RVEKBKeQd7fbZZGiXJzmotNiunoSiUfsynTaDE7bmjITyY9gG+Et8GyLUXGIgY52
gkmMSXvA/qakqVYu0wWcYf4KfrctsZcxCgNnYkokXfohxjlN0vBztl8c49i6+Sah
p8qt9o6evoI7uR3KdG1rRSRxvozFnoxgySDlT1cwUTbYygfDSGoj4j1FyIZbbJdY
++KOHDUCwwyG3owaUV3x5y5x1TSLV9M6j6SliebVaKAfSsor4HiJ3s7n/iyrTOLe
xFn5pBBLpO04Wl3foZO+d6gMENGncQ1A47lpsjOfEWdil7EN3sD2/xAuKsgr2Vks
BmPw+VHaPCsrVxSrnitgrzDkKR2NgWC6y+Lze1RIyIU/8EEfWe4CUiEqiQkpSQyQ
ynme11M07kTbZFNYJywj1h9mQs7SNtnlRRboN/Hxeei6XEZOtt1WNP2DuH16JSv7
SRiWK/W2LCduuX8SWvqpkwkq+ZoZCLX7ERDdopx/OA8kVPRr0wbwjxfLCV9rXS85
iT24+fng1cy25ZK6XBAxtHOyhZ+1yxxdf1daHeQBxUBhDM1MjE8wfHdb/CZWHdTN
gf5ouTLVzhf5Aj7m
-----END CERTIFICATE-----
